; Function Attrs: null_pointer_is_valid sspstrong uwtable
define hidden i32 @extcap_complex_get_int(ptr noundef readonly captures(address_is_null) %0) local_unnamed_addr #0 {
  %2 = icmp eq ptr %0, null
  br i1 %2, label %12, label %3

3:                                                ; preds = %1
  %4 = getelementptr inbounds nuw i8, ptr %0, i64 8
  %5 = load ptr, ptr %4, align 8
  %6 = icmp eq ptr %5, null
  br i1 %6, label %12, label %7

7:                                                ; preds = %3
  %8 = load i32, ptr %0, align 8
  %.not = icmp eq i32 %8, 1
  br i1 %.not, label %9, label %12

9:                                                ; preds = %7
  %10 = tail call i64 @g_ascii_strtoll(ptr noundef nonnull %5, ptr noundef null, i32 noundef 10)
  %11 = trunc i64 %10 to i32
  br label %12

12:                                               ; preds = %1, %3, %7, %9
  %.0 = phi i32 [ %11, %9 ], [ 0, %7 ], [ 0, %3 ], [ 0, %1 ]
  ret i32 %.0
}